
/home/5hayanB/temporary/burq-suite-tests/17/riscv_dv_out_2/asm_test/Jump_Stress_Test_0.o:     file format elf32-littleriscv


Disassembly of section .text:

80000000 <_start>:
80000000:	f14022f3          	csrr	t0,mhartid
80000004:	00000313          	li	t1,0
80000008:	00628263          	beq	t0,t1,8000000c <_start+0xc>
8000000c:	00000f97          	auipc	t6,0x0
80000010:	00cf8f93          	add	t6,t6,12 # 80000018 <h0_start>
80000014:	000f8067          	jr	t6

80000018 <h0_start>:
80000018:	40000737          	lui	a4,0x40000
8000001c:	10070713          	add	a4,a4,256 # 40000100 <_start-0x3fffff00>
80000020:	30171073          	csrw	misa,a4

80000024 <kernel_sp>:
80000024:	0000ff17          	auipc	t5,0xf
80000028:	c60f0f13          	add	t5,t5,-928 # 8000ec84 <kernel_stack_end>

8000002c <trap_vec_init>:
8000002c:	00001717          	auipc	a4,0x1
80000030:	c9470713          	add	a4,a4,-876 # 80000cc0 <mtvec_handler>
80000034:	00176713          	or	a4,a4,1
80000038:	30571073          	csrw	mtvec,a4

8000003c <mepc_setup>:
8000003c:	00000717          	auipc	a4,0x0
80000040:	02470713          	add	a4,a4,36 # 80000060 <init>
80000044:	34171073          	csrw	mepc,a4

80000048 <init_machine_mode>:
80000048:	00002737          	lui	a4,0x2
8000004c:	a0070713          	add	a4,a4,-1536 # 1a00 <_start-0x7fffe600>
80000050:	30071073          	csrw	mstatus,a4
80000054:	00000713          	li	a4,0
80000058:	30471073          	csrw	mie,a4
8000005c:	30200073          	mret

80000060 <init>:
80000060:	126e4037          	lui	zero,0x126e4
80000064:	b9800013          	li	zero,-1128
80000068:	33e270b7          	lui	ra,0x33e27
8000006c:	c0208093          	add	ra,ra,-1022 # 33e26c02 <_start-0x4c1d93fe>
80000070:	fdfdb137          	lui	sp,0xfdfdb
80000074:	27a10113          	add	sp,sp,634 # fdfdb27a <_end+0x7dfcc5f2>
80000078:	fe5a31b7          	lui	gp,0xfe5a3
8000007c:	b8318193          	add	gp,gp,-1149 # fe5a2b83 <_end+0x7e593efb>
80000080:	80000237          	lui	tp,0x80000
80000084:	00000293          	li	t0,0
80000088:	2882d337          	lui	t1,0x2882d
8000008c:	01d30313          	add	t1,t1,29 # 2882d01d <_start-0x577d2fe3>
80000090:	00000393          	li	t2,0
80000094:	00100493          	li	s1,1
80000098:	f6388537          	lui	a0,0xf6388
8000009c:	70b50513          	add	a0,a0,1803 # f638870b <_end+0x76379a83>
800000a0:	00000593          	li	a1,0
800000a4:	f4db6637          	lui	a2,0xf4db6
800000a8:	cd960613          	add	a2,a2,-807 # f4db5cd9 <_end+0x74da7051>
800000ac:	00500693          	li	a3,5
800000b0:	f8d4a737          	lui	a4,0xf8d4a
800000b4:	30970713          	add	a4,a4,777 # f8d4a309 <_end+0x78d3b681>
800000b8:	090cf7b7          	lui	a5,0x90cf
800000bc:	98b78793          	add	a5,a5,-1653 # 90ce98b <_start-0x76f31675>
800000c0:	80000837          	lui	a6,0x80000
800000c4:	00000893          	li	a7,0
800000c8:	fed47937          	lui	s2,0xfed47
800000cc:	52c90913          	add	s2,s2,1324 # fed4752c <_end+0x7ed388a4>
800000d0:	800009b7          	lui	s3,0x80000
800000d4:	653e1a37          	lui	s4,0x653e1
800000d8:	110a0a13          	add	s4,s4,272 # 653e1110 <_start-0x1ac1eef0>
800000dc:	80000ab7          	lui	s5,0x80000
800000e0:	fa713b37          	lui	s6,0xfa713
800000e4:	d82b0b13          	add	s6,s6,-638 # fa712d82 <_end+0x7a7040fa>
800000e8:	e23aebb7          	lui	s7,0xe23ae
800000ec:	ccbb8b93          	add	s7,s7,-821 # e23adccb <_end+0x6239f043>
800000f0:	fc3a8c37          	lui	s8,0xfc3a8
800000f4:	c41c0c13          	add	s8,s8,-959 # fc3a7c41 <_end+0x7c398fb9>
800000f8:	fbec0cb7          	lui	s9,0xfbec0
800000fc:	b97c8c93          	add	s9,s9,-1129 # fbebfb97 <_end+0x7beb0f0f>
80000100:	f3c4bd37          	lui	s10,0xf3c4b
80000104:	0c9d0d13          	add	s10,s10,201 # f3c4b0c9 <_end+0x73c3c441>
80000108:	f3b93db7          	lui	s11,0xf3b93
8000010c:	169d8d93          	add	s11,s11,361 # f3b93169 <_end+0x73b844e1>
80000110:	00100e13          	li	t3,1
80000114:	d71beeb7          	lui	t4,0xd71be
80000118:	1cbe8e93          	add	t4,t4,459 # d71be1cb <_end+0x571af543>
8000011c:	e3895fb7          	lui	t6,0xe3895
80000120:	ae2f8f93          	add	t6,t6,-1310 # e3894ae2 <_end+0x63885e5a>
80000124:	0000a417          	auipc	s0,0xa
80000128:	d4040413          	add	s0,s0,-704 # 80009e64 <user_stack_end>

8000012c <main>:
8000012c:	01c00bef          	jal	s7,80000148 <main+0x1c>
80000130:	03000c6f          	jal	s8,80000160 <main+0x34>
80000134:	058000ef          	jal	8000018c <main+0x60>
80000138:	03c000ef          	jal	80000174 <main+0x48>
8000013c:	0100086f          	jal	a6,8000014c <main+0x20>
80000140:	054000ef          	jal	80000194 <main+0x68>
80000144:	020000ef          	jal	80000164 <main+0x38>
80000148:	008000ef          	jal	80000150 <main+0x24>
8000014c:	01c000ef          	jal	80000168 <main+0x3c>
80000150:	00c000ef          	jal	8000015c <main+0x30>
80000154:	0340066f          	jal	a2,80000188 <main+0x5c>
80000158:	020000ef          	jal	80000178 <main+0x4c>
8000015c:	010005ef          	jal	a1,8000016c <main+0x40>
80000160:	fd9ff0ef          	jal	80000138 <main+0xc>
80000164:	ff1ff8ef          	jal	a7,80000154 <main+0x28>
80000168:	01c000ef          	jal	80000184 <main+0x58>
8000016c:	004000ef          	jal	80000170 <main+0x44>
80000170:	03000c6f          	jal	s8,800001a0 <main+0x74>
80000174:	03000cef          	jal	s9,800001a4 <main+0x78>
80000178:	fbdff76f          	jal	a4,80000134 <main+0x8>
8000017c:	fb5ff0ef          	jal	80000130 <main+0x4>
80000180:	01c00cef          	jal	s9,8000019c <main+0x70>
80000184:	ff9ffe6f          	jal	t3,8000017c <main+0x50>
80000188:	008000ef          	jal	80000190 <main+0x64>
8000018c:	fb5ffeef          	jal	t4,80000140 <main+0x14>
80000190:	fc9ff0ef          	jal	80000158 <main+0x2c>
80000194:	004000ef          	jal	80000198 <main+0x6c>
80000198:	fa5ffeef          	jal	t4,8000013c <main+0x10>
8000019c:	fa9ff1ef          	jal	gp,80000144 <main+0x18>
800001a0:	fe1ff0ef          	jal	80000180 <main+0x54>
800001a4:	ff2c0d93          	add	s11,s8,-14
800001a8:	4068d133          	sra	sp,a7,t1
800001ac:	014e4863          	blt	t3,s4,800001bc <main+0x90>
800001b0:	90598013          	add	zero,s3,-1787 # 7ffff905 <_start-0x6fb>
800001b4:	024ad663          	bge	s5,tp,800001e0 <main+0xb4>
800001b8:	00fd6133          	or	sp,s10,a5
800001bc:	01d8d0b3          	srl	ra,a7,t4
800001c0:	015fc2b3          	xor	t0,t6,s5
800001c4:	406252b3          	sra	t0,tp,t1
800001c8:	400b8eb3          	sub	t4,s7,zero
800001cc:	00b0a7b3          	slt	a5,ra,a1
800001d0:	00888bb3          	add	s7,a7,s0
800001d4:	9c0c8397          	auipc	t2,0x9c0c8
800001d8:	0080d5b3          	srl	a1,ra,s0
800001dc:	00bee263          	bltu	t4,a1,800001e0 <main+0xb4>
800001e0:	05f36863          	bltu	t1,t6,80000230 <main+0x104>
800001e4:	006e9663          	bne	t4,t1,800001f0 <main+0xc4>
800001e8:	40765d93          	sra	s11,a2,0x7
800001ec:	18380693          	add	a3,a6,387 # 80000183 <main+0x57>
800001f0:	05460863          	beq	a2,s4,80000240 <main+0x114>
800001f4:	02b58e63          	beq	a1,a1,80000230 <main+0x104>
800001f8:	71f98037          	lui	zero,0x71f98
800001fc:	77433e13          	sltiu	t3,t1,1908
80000200:	40965633          	sra	a2,a2,s1
80000204:	402a5833          	sra	a6,s4,sp
80000208:	009f1833          	sll	a6,t5,s1
8000020c:	03909663          	bne	ra,s9,80000238 <main+0x10c>
80000210:	03102d13          	slti	s10,zero,49
80000214:	013d7033          	and	zero,s10,s3
80000218:	008133b3          	sltu	t2,sp,s0
8000021c:	00043133          	sltu	sp,s0,zero
80000220:	5863a093          	slti	ra,t2,1414
80000224:	e5be2093          	slti	ra,t3,-421
80000228:	00000013          	nop
8000022c:	007b26b3          	slt	a3,s6,t2
80000230:	796a3693          	sltiu	a3,s4,1942
80000234:	5d7d8897          	auipc	a7,0x5d7d8
80000238:	009a0a63          	beq	s4,s1,8000024c <main+0x120>
8000023c:	000a1293          	sll	t0,s4,0x0
80000240:	00675863          	bge	a4,t1,80000250 <main+0x124>
80000244:	767c6a13          	or	s4,s8,1895
80000248:	49c22137          	lui	sp,0x49c22
8000024c:	01ebfb33          	and	s6,s7,t5
80000250:	40a35713          	sra	a4,t1,0xa
80000254:	013bfa33          	and	s4,s7,s3
80000258:	006d5733          	srl	a4,s10,t1
8000025c:	7c84e017          	auipc	zero,0x7c84e
80000260:	05c60063          	beq	a2,t3,800002a0 <main+0x174>
80000264:	ddaa6c93          	or	s9,s4,-550
80000268:	02165863          	bge	a2,ra,80000298 <main+0x16c>
8000026c:	40668633          	sub	a2,a3,t1
80000270:	01d407b3          	add	a5,s0,t4
80000274:	68c86a13          	or	s4,a6,1676
80000278:	010b40b3          	xor	ra,s6,a6
8000027c:	015f69b3          	or	s3,t5,s5
80000280:	409ed393          	sra	t2,t4,0x9
80000284:	00c93bb3          	sltu	s7,s2,a2
80000288:	013ff233          	and	tp,t6,s3
8000028c:	01136463          	bltu	t1,a7,80000294 <main+0x168>
80000290:	00c231b3          	sltu	gp,tp,a2
80000294:	57e9b013          	sltiu	zero,s3,1406
80000298:	01a81833          	sll	a6,a6,s10
8000029c:	00f6dd93          	srl	s11,a3,0xf
800002a0:	0045d863          	bge	a1,tp,800002b0 <main+0x184>
800002a4:	00660333          	add	t1,a2,t1
800002a8:	8f900737          	lui	a4,0x8f900
800002ac:	02e58c63          	beq	a1,a4,800002e4 <main+0x1b8>
800002b0:	000797b3          	sll	a5,a5,zero
800002b4:	00601d93          	sll	s11,zero,0x6
800002b8:	5fccec13          	or	s8,s9,1532
800002bc:	00599613          	sll	a2,s3,0x5
800002c0:	02986663          	bltu	a6,s1,800002ec <main+0x1c0>
800002c4:	4102db93          	sra	s7,t0,0x10
800002c8:	9ca04bb7          	lui	s7,0x9ca04
800002cc:	01ff31b3          	sltu	gp,t5,t6
800002d0:	41a75793          	sra	a5,a4,0x1a
800002d4:	ac2afa93          	and	s5,s5,-1342
800002d8:	019c1613          	sll	a2,s8,0x19
800002dc:	409dd693          	sra	a3,s11,0x9
800002e0:	00e39813          	sll	a6,t2,0xe
800002e4:	01d96c63          	bltu	s2,t4,800002fc <main+0x1d0>
800002e8:	0033da63          	bge	t2,gp,800002fc <main+0x1d0>
800002ec:	01c91a93          	sll	s5,s2,0x1c
800002f0:	64672613          	slti	a2,a4,1606
800002f4:	01459c93          	sll	s9,a1,0x14
800002f8:	4040d813          	sra	a6,ra,0x4
800002fc:	28b82513          	slti	a0,a6,651
80000300:	00000f97          	auipc	t6,0x0
80000304:	00cf8f93          	add	t6,t6,12 # 8000030c <test_done>
80000308:	000f8067          	jr	t6

8000030c <test_done>:
8000030c:	00100193          	li	gp,1
80000310:	00000073          	ecall

80000314 <write_tohost>:
80000314:	00001f17          	auipc	t5,0x1
80000318:	ce3f2623          	sw	gp,-788(t5) # 80001000 <tohost>

8000031c <_exit>:
8000031c:	ff9ff06f          	j	80000314 <write_tohost>

80000320 <instr_end>:
80000320:	00000013          	nop

80000324 <mmode_intr_vector_1>:
80000324:	34041473          	csrrw	s0,mscratch,s0
80000328:	000f0433          	add	s0,t5,zero
8000032c:	f8440413          	add	s0,s0,-124
80000330:	00142223          	sw	ra,4(s0)
80000334:	00242423          	sw	sp,8(s0)
80000338:	00342623          	sw	gp,12(s0)
8000033c:	00442823          	sw	tp,16(s0)
80000340:	00542a23          	sw	t0,20(s0)
80000344:	00642c23          	sw	t1,24(s0)
80000348:	00742e23          	sw	t2,28(s0)
8000034c:	02842023          	sw	s0,32(s0)
80000350:	02942223          	sw	s1,36(s0)
80000354:	02a42423          	sw	a0,40(s0)
80000358:	02b42623          	sw	a1,44(s0)
8000035c:	02c42823          	sw	a2,48(s0)
80000360:	02d42a23          	sw	a3,52(s0)
80000364:	02e42c23          	sw	a4,56(s0)
80000368:	02f42e23          	sw	a5,60(s0)
8000036c:	05042023          	sw	a6,64(s0)
80000370:	05142223          	sw	a7,68(s0)
80000374:	05242423          	sw	s2,72(s0)
80000378:	05342623          	sw	s3,76(s0)
8000037c:	05442823          	sw	s4,80(s0)
80000380:	05542a23          	sw	s5,84(s0)
80000384:	05642c23          	sw	s6,88(s0)
80000388:	05742e23          	sw	s7,92(s0)
8000038c:	07842023          	sw	s8,96(s0)
80000390:	07942223          	sw	s9,100(s0)
80000394:	07a42423          	sw	s10,104(s0)
80000398:	07b42623          	sw	s11,108(s0)
8000039c:	07c42823          	sw	t3,112(s0)
800003a0:	07d42a23          	sw	t4,116(s0)
800003a4:	07e42c23          	sw	t5,120(s0)
800003a8:	07f42e23          	sw	t6,124(s0)
800003ac:	34202773          	csrr	a4,mcause
800003b0:	01f75713          	srl	a4,a4,0x1f
800003b4:	00070463          	beqz	a4,800003bc <mmode_intr_vector_1+0x98>
800003b8:	3250006f          	j	80000edc <mmode_intr_handler>
800003bc:	00000f97          	auipc	t6,0x0
800003c0:	f50f8f93          	add	t6,t6,-176 # 8000030c <test_done>
800003c4:	000f8067          	jr	t6

800003c8 <mmode_intr_vector_2>:
800003c8:	34041473          	csrrw	s0,mscratch,s0
800003cc:	000f0433          	add	s0,t5,zero
800003d0:	f8440413          	add	s0,s0,-124
800003d4:	00142223          	sw	ra,4(s0)
800003d8:	00242423          	sw	sp,8(s0)
800003dc:	00342623          	sw	gp,12(s0)
800003e0:	00442823          	sw	tp,16(s0)
800003e4:	00542a23          	sw	t0,20(s0)
800003e8:	00642c23          	sw	t1,24(s0)
800003ec:	00742e23          	sw	t2,28(s0)
800003f0:	02842023          	sw	s0,32(s0)
800003f4:	02942223          	sw	s1,36(s0)
800003f8:	02a42423          	sw	a0,40(s0)
800003fc:	02b42623          	sw	a1,44(s0)
80000400:	02c42823          	sw	a2,48(s0)
80000404:	02d42a23          	sw	a3,52(s0)
80000408:	02e42c23          	sw	a4,56(s0)
8000040c:	02f42e23          	sw	a5,60(s0)
80000410:	05042023          	sw	a6,64(s0)
80000414:	05142223          	sw	a7,68(s0)
80000418:	05242423          	sw	s2,72(s0)
8000041c:	05342623          	sw	s3,76(s0)
80000420:	05442823          	sw	s4,80(s0)
80000424:	05542a23          	sw	s5,84(s0)
80000428:	05642c23          	sw	s6,88(s0)
8000042c:	05742e23          	sw	s7,92(s0)
80000430:	07842023          	sw	s8,96(s0)
80000434:	07942223          	sw	s9,100(s0)
80000438:	07a42423          	sw	s10,104(s0)
8000043c:	07b42623          	sw	s11,108(s0)
80000440:	07c42823          	sw	t3,112(s0)
80000444:	07d42a23          	sw	t4,116(s0)
80000448:	07e42c23          	sw	t5,120(s0)
8000044c:	07f42e23          	sw	t6,124(s0)
80000450:	34202773          	csrr	a4,mcause
80000454:	01f75713          	srl	a4,a4,0x1f
80000458:	00070463          	beqz	a4,80000460 <mmode_intr_vector_2+0x98>
8000045c:	2810006f          	j	80000edc <mmode_intr_handler>
80000460:	00000f97          	auipc	t6,0x0
80000464:	eacf8f93          	add	t6,t6,-340 # 8000030c <test_done>
80000468:	000f8067          	jr	t6

8000046c <mmode_intr_vector_3>:
8000046c:	34041473          	csrrw	s0,mscratch,s0
80000470:	000f0433          	add	s0,t5,zero
80000474:	f8440413          	add	s0,s0,-124
80000478:	00142223          	sw	ra,4(s0)
8000047c:	00242423          	sw	sp,8(s0)
80000480:	00342623          	sw	gp,12(s0)
80000484:	00442823          	sw	tp,16(s0)
80000488:	00542a23          	sw	t0,20(s0)
8000048c:	00642c23          	sw	t1,24(s0)
80000490:	00742e23          	sw	t2,28(s0)
80000494:	02842023          	sw	s0,32(s0)
80000498:	02942223          	sw	s1,36(s0)
8000049c:	02a42423          	sw	a0,40(s0)
800004a0:	02b42623          	sw	a1,44(s0)
800004a4:	02c42823          	sw	a2,48(s0)
800004a8:	02d42a23          	sw	a3,52(s0)
800004ac:	02e42c23          	sw	a4,56(s0)
800004b0:	02f42e23          	sw	a5,60(s0)
800004b4:	05042023          	sw	a6,64(s0)
800004b8:	05142223          	sw	a7,68(s0)
800004bc:	05242423          	sw	s2,72(s0)
800004c0:	05342623          	sw	s3,76(s0)
800004c4:	05442823          	sw	s4,80(s0)
800004c8:	05542a23          	sw	s5,84(s0)
800004cc:	05642c23          	sw	s6,88(s0)
800004d0:	05742e23          	sw	s7,92(s0)
800004d4:	07842023          	sw	s8,96(s0)
800004d8:	07942223          	sw	s9,100(s0)
800004dc:	07a42423          	sw	s10,104(s0)
800004e0:	07b42623          	sw	s11,108(s0)
800004e4:	07c42823          	sw	t3,112(s0)
800004e8:	07d42a23          	sw	t4,116(s0)
800004ec:	07e42c23          	sw	t5,120(s0)
800004f0:	07f42e23          	sw	t6,124(s0)
800004f4:	34202773          	csrr	a4,mcause
800004f8:	01f75713          	srl	a4,a4,0x1f
800004fc:	00070463          	beqz	a4,80000504 <mmode_intr_vector_3+0x98>
80000500:	1dd0006f          	j	80000edc <mmode_intr_handler>
80000504:	00000f97          	auipc	t6,0x0
80000508:	e08f8f93          	add	t6,t6,-504 # 8000030c <test_done>
8000050c:	000f8067          	jr	t6

80000510 <mmode_intr_vector_4>:
80000510:	34041473          	csrrw	s0,mscratch,s0
80000514:	000f0433          	add	s0,t5,zero
80000518:	f8440413          	add	s0,s0,-124
8000051c:	00142223          	sw	ra,4(s0)
80000520:	00242423          	sw	sp,8(s0)
80000524:	00342623          	sw	gp,12(s0)
80000528:	00442823          	sw	tp,16(s0)
8000052c:	00542a23          	sw	t0,20(s0)
80000530:	00642c23          	sw	t1,24(s0)
80000534:	00742e23          	sw	t2,28(s0)
80000538:	02842023          	sw	s0,32(s0)
8000053c:	02942223          	sw	s1,36(s0)
80000540:	02a42423          	sw	a0,40(s0)
80000544:	02b42623          	sw	a1,44(s0)
80000548:	02c42823          	sw	a2,48(s0)
8000054c:	02d42a23          	sw	a3,52(s0)
80000550:	02e42c23          	sw	a4,56(s0)
80000554:	02f42e23          	sw	a5,60(s0)
80000558:	05042023          	sw	a6,64(s0)
8000055c:	05142223          	sw	a7,68(s0)
80000560:	05242423          	sw	s2,72(s0)
80000564:	05342623          	sw	s3,76(s0)
80000568:	05442823          	sw	s4,80(s0)
8000056c:	05542a23          	sw	s5,84(s0)
80000570:	05642c23          	sw	s6,88(s0)
80000574:	05742e23          	sw	s7,92(s0)
80000578:	07842023          	sw	s8,96(s0)
8000057c:	07942223          	sw	s9,100(s0)
80000580:	07a42423          	sw	s10,104(s0)
80000584:	07b42623          	sw	s11,108(s0)
80000588:	07c42823          	sw	t3,112(s0)
8000058c:	07d42a23          	sw	t4,116(s0)
80000590:	07e42c23          	sw	t5,120(s0)
80000594:	07f42e23          	sw	t6,124(s0)
80000598:	34202773          	csrr	a4,mcause
8000059c:	01f75713          	srl	a4,a4,0x1f
800005a0:	00070463          	beqz	a4,800005a8 <mmode_intr_vector_4+0x98>
800005a4:	1390006f          	j	80000edc <mmode_intr_handler>
800005a8:	00000f97          	auipc	t6,0x0
800005ac:	d64f8f93          	add	t6,t6,-668 # 8000030c <test_done>
800005b0:	000f8067          	jr	t6

800005b4 <mmode_intr_vector_5>:
800005b4:	34041473          	csrrw	s0,mscratch,s0
800005b8:	000f0433          	add	s0,t5,zero
800005bc:	f8440413          	add	s0,s0,-124
800005c0:	00142223          	sw	ra,4(s0)
800005c4:	00242423          	sw	sp,8(s0)
800005c8:	00342623          	sw	gp,12(s0)
800005cc:	00442823          	sw	tp,16(s0)
800005d0:	00542a23          	sw	t0,20(s0)
800005d4:	00642c23          	sw	t1,24(s0)
800005d8:	00742e23          	sw	t2,28(s0)
800005dc:	02842023          	sw	s0,32(s0)
800005e0:	02942223          	sw	s1,36(s0)
800005e4:	02a42423          	sw	a0,40(s0)
800005e8:	02b42623          	sw	a1,44(s0)
800005ec:	02c42823          	sw	a2,48(s0)
800005f0:	02d42a23          	sw	a3,52(s0)
800005f4:	02e42c23          	sw	a4,56(s0)
800005f8:	02f42e23          	sw	a5,60(s0)
800005fc:	05042023          	sw	a6,64(s0)
80000600:	05142223          	sw	a7,68(s0)
80000604:	05242423          	sw	s2,72(s0)
80000608:	05342623          	sw	s3,76(s0)
8000060c:	05442823          	sw	s4,80(s0)
80000610:	05542a23          	sw	s5,84(s0)
80000614:	05642c23          	sw	s6,88(s0)
80000618:	05742e23          	sw	s7,92(s0)
8000061c:	07842023          	sw	s8,96(s0)
80000620:	07942223          	sw	s9,100(s0)
80000624:	07a42423          	sw	s10,104(s0)
80000628:	07b42623          	sw	s11,108(s0)
8000062c:	07c42823          	sw	t3,112(s0)
80000630:	07d42a23          	sw	t4,116(s0)
80000634:	07e42c23          	sw	t5,120(s0)
80000638:	07f42e23          	sw	t6,124(s0)
8000063c:	34202773          	csrr	a4,mcause
80000640:	01f75713          	srl	a4,a4,0x1f
80000644:	00070463          	beqz	a4,8000064c <mmode_intr_vector_5+0x98>
80000648:	0950006f          	j	80000edc <mmode_intr_handler>
8000064c:	00000f97          	auipc	t6,0x0
80000650:	cc0f8f93          	add	t6,t6,-832 # 8000030c <test_done>
80000654:	000f8067          	jr	t6

80000658 <mmode_intr_vector_6>:
80000658:	34041473          	csrrw	s0,mscratch,s0
8000065c:	000f0433          	add	s0,t5,zero
80000660:	f8440413          	add	s0,s0,-124
80000664:	00142223          	sw	ra,4(s0)
80000668:	00242423          	sw	sp,8(s0)
8000066c:	00342623          	sw	gp,12(s0)
80000670:	00442823          	sw	tp,16(s0)
80000674:	00542a23          	sw	t0,20(s0)
80000678:	00642c23          	sw	t1,24(s0)
8000067c:	00742e23          	sw	t2,28(s0)
80000680:	02842023          	sw	s0,32(s0)
80000684:	02942223          	sw	s1,36(s0)
80000688:	02a42423          	sw	a0,40(s0)
8000068c:	02b42623          	sw	a1,44(s0)
80000690:	02c42823          	sw	a2,48(s0)
80000694:	02d42a23          	sw	a3,52(s0)
80000698:	02e42c23          	sw	a4,56(s0)
8000069c:	02f42e23          	sw	a5,60(s0)
800006a0:	05042023          	sw	a6,64(s0)
800006a4:	05142223          	sw	a7,68(s0)
800006a8:	05242423          	sw	s2,72(s0)
800006ac:	05342623          	sw	s3,76(s0)
800006b0:	05442823          	sw	s4,80(s0)
800006b4:	05542a23          	sw	s5,84(s0)
800006b8:	05642c23          	sw	s6,88(s0)
800006bc:	05742e23          	sw	s7,92(s0)
800006c0:	07842023          	sw	s8,96(s0)
800006c4:	07942223          	sw	s9,100(s0)
800006c8:	07a42423          	sw	s10,104(s0)
800006cc:	07b42623          	sw	s11,108(s0)
800006d0:	07c42823          	sw	t3,112(s0)
800006d4:	07d42a23          	sw	t4,116(s0)
800006d8:	07e42c23          	sw	t5,120(s0)
800006dc:	07f42e23          	sw	t6,124(s0)
800006e0:	34202773          	csrr	a4,mcause
800006e4:	01f75713          	srl	a4,a4,0x1f
800006e8:	00070463          	beqz	a4,800006f0 <mmode_intr_vector_6+0x98>
800006ec:	7f00006f          	j	80000edc <mmode_intr_handler>
800006f0:	00000f97          	auipc	t6,0x0
800006f4:	c1cf8f93          	add	t6,t6,-996 # 8000030c <test_done>
800006f8:	000f8067          	jr	t6

800006fc <mmode_intr_vector_7>:
800006fc:	34041473          	csrrw	s0,mscratch,s0
80000700:	000f0433          	add	s0,t5,zero
80000704:	f8440413          	add	s0,s0,-124
80000708:	00142223          	sw	ra,4(s0)
8000070c:	00242423          	sw	sp,8(s0)
80000710:	00342623          	sw	gp,12(s0)
80000714:	00442823          	sw	tp,16(s0)
80000718:	00542a23          	sw	t0,20(s0)
8000071c:	00642c23          	sw	t1,24(s0)
80000720:	00742e23          	sw	t2,28(s0)
80000724:	02842023          	sw	s0,32(s0)
80000728:	02942223          	sw	s1,36(s0)
8000072c:	02a42423          	sw	a0,40(s0)
80000730:	02b42623          	sw	a1,44(s0)
80000734:	02c42823          	sw	a2,48(s0)
80000738:	02d42a23          	sw	a3,52(s0)
8000073c:	02e42c23          	sw	a4,56(s0)
80000740:	02f42e23          	sw	a5,60(s0)
80000744:	05042023          	sw	a6,64(s0)
80000748:	05142223          	sw	a7,68(s0)
8000074c:	05242423          	sw	s2,72(s0)
80000750:	05342623          	sw	s3,76(s0)
80000754:	05442823          	sw	s4,80(s0)
80000758:	05542a23          	sw	s5,84(s0)
8000075c:	05642c23          	sw	s6,88(s0)
80000760:	05742e23          	sw	s7,92(s0)
80000764:	07842023          	sw	s8,96(s0)
80000768:	07942223          	sw	s9,100(s0)
8000076c:	07a42423          	sw	s10,104(s0)
80000770:	07b42623          	sw	s11,108(s0)
80000774:	07c42823          	sw	t3,112(s0)
80000778:	07d42a23          	sw	t4,116(s0)
8000077c:	07e42c23          	sw	t5,120(s0)
80000780:	07f42e23          	sw	t6,124(s0)
80000784:	34202773          	csrr	a4,mcause
80000788:	01f75713          	srl	a4,a4,0x1f
8000078c:	00070463          	beqz	a4,80000794 <mmode_intr_vector_7+0x98>
80000790:	74c0006f          	j	80000edc <mmode_intr_handler>
80000794:	00000f97          	auipc	t6,0x0
80000798:	b78f8f93          	add	t6,t6,-1160 # 8000030c <test_done>
8000079c:	000f8067          	jr	t6

800007a0 <mmode_intr_vector_8>:
800007a0:	34041473          	csrrw	s0,mscratch,s0
800007a4:	000f0433          	add	s0,t5,zero
800007a8:	f8440413          	add	s0,s0,-124
800007ac:	00142223          	sw	ra,4(s0)
800007b0:	00242423          	sw	sp,8(s0)
800007b4:	00342623          	sw	gp,12(s0)
800007b8:	00442823          	sw	tp,16(s0)
800007bc:	00542a23          	sw	t0,20(s0)
800007c0:	00642c23          	sw	t1,24(s0)
800007c4:	00742e23          	sw	t2,28(s0)
800007c8:	02842023          	sw	s0,32(s0)
800007cc:	02942223          	sw	s1,36(s0)
800007d0:	02a42423          	sw	a0,40(s0)
800007d4:	02b42623          	sw	a1,44(s0)
800007d8:	02c42823          	sw	a2,48(s0)
800007dc:	02d42a23          	sw	a3,52(s0)
800007e0:	02e42c23          	sw	a4,56(s0)
800007e4:	02f42e23          	sw	a5,60(s0)
800007e8:	05042023          	sw	a6,64(s0)
800007ec:	05142223          	sw	a7,68(s0)
800007f0:	05242423          	sw	s2,72(s0)
800007f4:	05342623          	sw	s3,76(s0)
800007f8:	05442823          	sw	s4,80(s0)
800007fc:	05542a23          	sw	s5,84(s0)
80000800:	05642c23          	sw	s6,88(s0)
80000804:	05742e23          	sw	s7,92(s0)
80000808:	07842023          	sw	s8,96(s0)
8000080c:	07942223          	sw	s9,100(s0)
80000810:	07a42423          	sw	s10,104(s0)
80000814:	07b42623          	sw	s11,108(s0)
80000818:	07c42823          	sw	t3,112(s0)
8000081c:	07d42a23          	sw	t4,116(s0)
80000820:	07e42c23          	sw	t5,120(s0)
80000824:	07f42e23          	sw	t6,124(s0)
80000828:	34202773          	csrr	a4,mcause
8000082c:	01f75713          	srl	a4,a4,0x1f
80000830:	00070463          	beqz	a4,80000838 <mmode_intr_vector_8+0x98>
80000834:	6a80006f          	j	80000edc <mmode_intr_handler>
80000838:	00000f97          	auipc	t6,0x0
8000083c:	ad4f8f93          	add	t6,t6,-1324 # 8000030c <test_done>
80000840:	000f8067          	jr	t6

80000844 <mmode_intr_vector_9>:
80000844:	34041473          	csrrw	s0,mscratch,s0
80000848:	000f0433          	add	s0,t5,zero
8000084c:	f8440413          	add	s0,s0,-124
80000850:	00142223          	sw	ra,4(s0)
80000854:	00242423          	sw	sp,8(s0)
80000858:	00342623          	sw	gp,12(s0)
8000085c:	00442823          	sw	tp,16(s0)
80000860:	00542a23          	sw	t0,20(s0)
80000864:	00642c23          	sw	t1,24(s0)
80000868:	00742e23          	sw	t2,28(s0)
8000086c:	02842023          	sw	s0,32(s0)
80000870:	02942223          	sw	s1,36(s0)
80000874:	02a42423          	sw	a0,40(s0)
80000878:	02b42623          	sw	a1,44(s0)
8000087c:	02c42823          	sw	a2,48(s0)
80000880:	02d42a23          	sw	a3,52(s0)
80000884:	02e42c23          	sw	a4,56(s0)
80000888:	02f42e23          	sw	a5,60(s0)
8000088c:	05042023          	sw	a6,64(s0)
80000890:	05142223          	sw	a7,68(s0)
80000894:	05242423          	sw	s2,72(s0)
80000898:	05342623          	sw	s3,76(s0)
8000089c:	05442823          	sw	s4,80(s0)
800008a0:	05542a23          	sw	s5,84(s0)
800008a4:	05642c23          	sw	s6,88(s0)
800008a8:	05742e23          	sw	s7,92(s0)
800008ac:	07842023          	sw	s8,96(s0)
800008b0:	07942223          	sw	s9,100(s0)
800008b4:	07a42423          	sw	s10,104(s0)
800008b8:	07b42623          	sw	s11,108(s0)
800008bc:	07c42823          	sw	t3,112(s0)
800008c0:	07d42a23          	sw	t4,116(s0)
800008c4:	07e42c23          	sw	t5,120(s0)
800008c8:	07f42e23          	sw	t6,124(s0)
800008cc:	34202773          	csrr	a4,mcause
800008d0:	01f75713          	srl	a4,a4,0x1f
800008d4:	00070463          	beqz	a4,800008dc <mmode_intr_vector_9+0x98>
800008d8:	6040006f          	j	80000edc <mmode_intr_handler>
800008dc:	00000f97          	auipc	t6,0x0
800008e0:	a30f8f93          	add	t6,t6,-1488 # 8000030c <test_done>
800008e4:	000f8067          	jr	t6

800008e8 <mmode_intr_vector_10>:
800008e8:	34041473          	csrrw	s0,mscratch,s0
800008ec:	000f0433          	add	s0,t5,zero
800008f0:	f8440413          	add	s0,s0,-124
800008f4:	00142223          	sw	ra,4(s0)
800008f8:	00242423          	sw	sp,8(s0)
800008fc:	00342623          	sw	gp,12(s0)
80000900:	00442823          	sw	tp,16(s0)
80000904:	00542a23          	sw	t0,20(s0)
80000908:	00642c23          	sw	t1,24(s0)
8000090c:	00742e23          	sw	t2,28(s0)
80000910:	02842023          	sw	s0,32(s0)
80000914:	02942223          	sw	s1,36(s0)
80000918:	02a42423          	sw	a0,40(s0)
8000091c:	02b42623          	sw	a1,44(s0)
80000920:	02c42823          	sw	a2,48(s0)
80000924:	02d42a23          	sw	a3,52(s0)
80000928:	02e42c23          	sw	a4,56(s0)
8000092c:	02f42e23          	sw	a5,60(s0)
80000930:	05042023          	sw	a6,64(s0)
80000934:	05142223          	sw	a7,68(s0)
80000938:	05242423          	sw	s2,72(s0)
8000093c:	05342623          	sw	s3,76(s0)
80000940:	05442823          	sw	s4,80(s0)
80000944:	05542a23          	sw	s5,84(s0)
80000948:	05642c23          	sw	s6,88(s0)
8000094c:	05742e23          	sw	s7,92(s0)
80000950:	07842023          	sw	s8,96(s0)
80000954:	07942223          	sw	s9,100(s0)
80000958:	07a42423          	sw	s10,104(s0)
8000095c:	07b42623          	sw	s11,108(s0)
80000960:	07c42823          	sw	t3,112(s0)
80000964:	07d42a23          	sw	t4,116(s0)
80000968:	07e42c23          	sw	t5,120(s0)
8000096c:	07f42e23          	sw	t6,124(s0)
80000970:	34202773          	csrr	a4,mcause
80000974:	01f75713          	srl	a4,a4,0x1f
80000978:	00070463          	beqz	a4,80000980 <mmode_intr_vector_10+0x98>
8000097c:	5600006f          	j	80000edc <mmode_intr_handler>
80000980:	00000f97          	auipc	t6,0x0
80000984:	98cf8f93          	add	t6,t6,-1652 # 8000030c <test_done>
80000988:	000f8067          	jr	t6

8000098c <mmode_intr_vector_11>:
8000098c:	34041473          	csrrw	s0,mscratch,s0
80000990:	000f0433          	add	s0,t5,zero
80000994:	f8440413          	add	s0,s0,-124
80000998:	00142223          	sw	ra,4(s0)
8000099c:	00242423          	sw	sp,8(s0)
800009a0:	00342623          	sw	gp,12(s0)
800009a4:	00442823          	sw	tp,16(s0)
800009a8:	00542a23          	sw	t0,20(s0)
800009ac:	00642c23          	sw	t1,24(s0)
800009b0:	00742e23          	sw	t2,28(s0)
800009b4:	02842023          	sw	s0,32(s0)
800009b8:	02942223          	sw	s1,36(s0)
800009bc:	02a42423          	sw	a0,40(s0)
800009c0:	02b42623          	sw	a1,44(s0)
800009c4:	02c42823          	sw	a2,48(s0)
800009c8:	02d42a23          	sw	a3,52(s0)
800009cc:	02e42c23          	sw	a4,56(s0)
800009d0:	02f42e23          	sw	a5,60(s0)
800009d4:	05042023          	sw	a6,64(s0)
800009d8:	05142223          	sw	a7,68(s0)
800009dc:	05242423          	sw	s2,72(s0)
800009e0:	05342623          	sw	s3,76(s0)
800009e4:	05442823          	sw	s4,80(s0)
800009e8:	05542a23          	sw	s5,84(s0)
800009ec:	05642c23          	sw	s6,88(s0)
800009f0:	05742e23          	sw	s7,92(s0)
800009f4:	07842023          	sw	s8,96(s0)
800009f8:	07942223          	sw	s9,100(s0)
800009fc:	07a42423          	sw	s10,104(s0)
80000a00:	07b42623          	sw	s11,108(s0)
80000a04:	07c42823          	sw	t3,112(s0)
80000a08:	07d42a23          	sw	t4,116(s0)
80000a0c:	07e42c23          	sw	t5,120(s0)
80000a10:	07f42e23          	sw	t6,124(s0)
80000a14:	34202773          	csrr	a4,mcause
80000a18:	01f75713          	srl	a4,a4,0x1f
80000a1c:	00070463          	beqz	a4,80000a24 <mmode_intr_vector_11+0x98>
80000a20:	4bc0006f          	j	80000edc <mmode_intr_handler>
80000a24:	00000f97          	auipc	t6,0x0
80000a28:	8e8f8f93          	add	t6,t6,-1816 # 8000030c <test_done>
80000a2c:	000f8067          	jr	t6

80000a30 <mmode_intr_vector_12>:
80000a30:	34041473          	csrrw	s0,mscratch,s0
80000a34:	000f0433          	add	s0,t5,zero
80000a38:	f8440413          	add	s0,s0,-124
80000a3c:	00142223          	sw	ra,4(s0)
80000a40:	00242423          	sw	sp,8(s0)
80000a44:	00342623          	sw	gp,12(s0)
80000a48:	00442823          	sw	tp,16(s0)
80000a4c:	00542a23          	sw	t0,20(s0)
80000a50:	00642c23          	sw	t1,24(s0)
80000a54:	00742e23          	sw	t2,28(s0)
80000a58:	02842023          	sw	s0,32(s0)
80000a5c:	02942223          	sw	s1,36(s0)
80000a60:	02a42423          	sw	a0,40(s0)
80000a64:	02b42623          	sw	a1,44(s0)
80000a68:	02c42823          	sw	a2,48(s0)
80000a6c:	02d42a23          	sw	a3,52(s0)
80000a70:	02e42c23          	sw	a4,56(s0)
80000a74:	02f42e23          	sw	a5,60(s0)
80000a78:	05042023          	sw	a6,64(s0)
80000a7c:	05142223          	sw	a7,68(s0)
80000a80:	05242423          	sw	s2,72(s0)
80000a84:	05342623          	sw	s3,76(s0)
80000a88:	05442823          	sw	s4,80(s0)
80000a8c:	05542a23          	sw	s5,84(s0)
80000a90:	05642c23          	sw	s6,88(s0)
80000a94:	05742e23          	sw	s7,92(s0)
80000a98:	07842023          	sw	s8,96(s0)
80000a9c:	07942223          	sw	s9,100(s0)
80000aa0:	07a42423          	sw	s10,104(s0)
80000aa4:	07b42623          	sw	s11,108(s0)
80000aa8:	07c42823          	sw	t3,112(s0)
80000aac:	07d42a23          	sw	t4,116(s0)
80000ab0:	07e42c23          	sw	t5,120(s0)
80000ab4:	07f42e23          	sw	t6,124(s0)
80000ab8:	34202773          	csrr	a4,mcause
80000abc:	01f75713          	srl	a4,a4,0x1f
80000ac0:	00070463          	beqz	a4,80000ac8 <mmode_intr_vector_12+0x98>
80000ac4:	4180006f          	j	80000edc <mmode_intr_handler>
80000ac8:	00000f97          	auipc	t6,0x0
80000acc:	844f8f93          	add	t6,t6,-1980 # 8000030c <test_done>
80000ad0:	000f8067          	jr	t6

80000ad4 <mmode_intr_vector_13>:
80000ad4:	34041473          	csrrw	s0,mscratch,s0
80000ad8:	000f0433          	add	s0,t5,zero
80000adc:	f8440413          	add	s0,s0,-124
80000ae0:	00142223          	sw	ra,4(s0)
80000ae4:	00242423          	sw	sp,8(s0)
80000ae8:	00342623          	sw	gp,12(s0)
80000aec:	00442823          	sw	tp,16(s0)
80000af0:	00542a23          	sw	t0,20(s0)
80000af4:	00642c23          	sw	t1,24(s0)
80000af8:	00742e23          	sw	t2,28(s0)
80000afc:	02842023          	sw	s0,32(s0)
80000b00:	02942223          	sw	s1,36(s0)
80000b04:	02a42423          	sw	a0,40(s0)
80000b08:	02b42623          	sw	a1,44(s0)
80000b0c:	02c42823          	sw	a2,48(s0)
80000b10:	02d42a23          	sw	a3,52(s0)
80000b14:	02e42c23          	sw	a4,56(s0)
80000b18:	02f42e23          	sw	a5,60(s0)
80000b1c:	05042023          	sw	a6,64(s0)
80000b20:	05142223          	sw	a7,68(s0)
80000b24:	05242423          	sw	s2,72(s0)
80000b28:	05342623          	sw	s3,76(s0)
80000b2c:	05442823          	sw	s4,80(s0)
80000b30:	05542a23          	sw	s5,84(s0)
80000b34:	05642c23          	sw	s6,88(s0)
80000b38:	05742e23          	sw	s7,92(s0)
80000b3c:	07842023          	sw	s8,96(s0)
80000b40:	07942223          	sw	s9,100(s0)
80000b44:	07a42423          	sw	s10,104(s0)
80000b48:	07b42623          	sw	s11,108(s0)
80000b4c:	07c42823          	sw	t3,112(s0)
80000b50:	07d42a23          	sw	t4,116(s0)
80000b54:	07e42c23          	sw	t5,120(s0)
80000b58:	07f42e23          	sw	t6,124(s0)
80000b5c:	34202773          	csrr	a4,mcause
80000b60:	01f75713          	srl	a4,a4,0x1f
80000b64:	00070463          	beqz	a4,80000b6c <mmode_intr_vector_13+0x98>
80000b68:	3740006f          	j	80000edc <mmode_intr_handler>
80000b6c:	ffffff97          	auipc	t6,0xfffff
80000b70:	7a0f8f93          	add	t6,t6,1952 # 8000030c <test_done>
80000b74:	000f8067          	jr	t6

80000b78 <mmode_intr_vector_14>:
80000b78:	34041473          	csrrw	s0,mscratch,s0
80000b7c:	000f0433          	add	s0,t5,zero
80000b80:	f8440413          	add	s0,s0,-124
80000b84:	00142223          	sw	ra,4(s0)
80000b88:	00242423          	sw	sp,8(s0)
80000b8c:	00342623          	sw	gp,12(s0)
80000b90:	00442823          	sw	tp,16(s0)
80000b94:	00542a23          	sw	t0,20(s0)
80000b98:	00642c23          	sw	t1,24(s0)
80000b9c:	00742e23          	sw	t2,28(s0)
80000ba0:	02842023          	sw	s0,32(s0)
80000ba4:	02942223          	sw	s1,36(s0)
80000ba8:	02a42423          	sw	a0,40(s0)
80000bac:	02b42623          	sw	a1,44(s0)
80000bb0:	02c42823          	sw	a2,48(s0)
80000bb4:	02d42a23          	sw	a3,52(s0)
80000bb8:	02e42c23          	sw	a4,56(s0)
80000bbc:	02f42e23          	sw	a5,60(s0)
80000bc0:	05042023          	sw	a6,64(s0)
80000bc4:	05142223          	sw	a7,68(s0)
80000bc8:	05242423          	sw	s2,72(s0)
80000bcc:	05342623          	sw	s3,76(s0)
80000bd0:	05442823          	sw	s4,80(s0)
80000bd4:	05542a23          	sw	s5,84(s0)
80000bd8:	05642c23          	sw	s6,88(s0)
80000bdc:	05742e23          	sw	s7,92(s0)
80000be0:	07842023          	sw	s8,96(s0)
80000be4:	07942223          	sw	s9,100(s0)
80000be8:	07a42423          	sw	s10,104(s0)
80000bec:	07b42623          	sw	s11,108(s0)
80000bf0:	07c42823          	sw	t3,112(s0)
80000bf4:	07d42a23          	sw	t4,116(s0)
80000bf8:	07e42c23          	sw	t5,120(s0)
80000bfc:	07f42e23          	sw	t6,124(s0)
80000c00:	34202773          	csrr	a4,mcause
80000c04:	01f75713          	srl	a4,a4,0x1f
80000c08:	00070463          	beqz	a4,80000c10 <mmode_intr_vector_14+0x98>
80000c0c:	2d00006f          	j	80000edc <mmode_intr_handler>
80000c10:	ffffff97          	auipc	t6,0xfffff
80000c14:	6fcf8f93          	add	t6,t6,1788 # 8000030c <test_done>
80000c18:	000f8067          	jr	t6

80000c1c <mmode_intr_vector_15>:
80000c1c:	34041473          	csrrw	s0,mscratch,s0
80000c20:	000f0433          	add	s0,t5,zero
80000c24:	f8440413          	add	s0,s0,-124
80000c28:	00142223          	sw	ra,4(s0)
80000c2c:	00242423          	sw	sp,8(s0)
80000c30:	00342623          	sw	gp,12(s0)
80000c34:	00442823          	sw	tp,16(s0)
80000c38:	00542a23          	sw	t0,20(s0)
80000c3c:	00642c23          	sw	t1,24(s0)
80000c40:	00742e23          	sw	t2,28(s0)
80000c44:	02842023          	sw	s0,32(s0)
80000c48:	02942223          	sw	s1,36(s0)
80000c4c:	02a42423          	sw	a0,40(s0)
80000c50:	02b42623          	sw	a1,44(s0)
80000c54:	02c42823          	sw	a2,48(s0)
80000c58:	02d42a23          	sw	a3,52(s0)
80000c5c:	02e42c23          	sw	a4,56(s0)
80000c60:	02f42e23          	sw	a5,60(s0)
80000c64:	05042023          	sw	a6,64(s0)
80000c68:	05142223          	sw	a7,68(s0)
80000c6c:	05242423          	sw	s2,72(s0)
80000c70:	05342623          	sw	s3,76(s0)
80000c74:	05442823          	sw	s4,80(s0)
80000c78:	05542a23          	sw	s5,84(s0)
80000c7c:	05642c23          	sw	s6,88(s0)
80000c80:	05742e23          	sw	s7,92(s0)
80000c84:	07842023          	sw	s8,96(s0)
80000c88:	07942223          	sw	s9,100(s0)
80000c8c:	07a42423          	sw	s10,104(s0)
80000c90:	07b42623          	sw	s11,108(s0)
80000c94:	07c42823          	sw	t3,112(s0)
80000c98:	07d42a23          	sw	t4,116(s0)
80000c9c:	07e42c23          	sw	t5,120(s0)
80000ca0:	07f42e23          	sw	t6,124(s0)
80000ca4:	34202773          	csrr	a4,mcause
80000ca8:	01f75713          	srl	a4,a4,0x1f
80000cac:	00070463          	beqz	a4,80000cb4 <mmode_intr_vector_15+0x98>
80000cb0:	22c0006f          	j	80000edc <mmode_intr_handler>
80000cb4:	ffffff97          	auipc	t6,0xfffff
80000cb8:	658f8f93          	add	t6,t6,1624 # 8000030c <test_done>
80000cbc:	000f8067          	jr	t6

80000cc0 <mtvec_handler>:
80000cc0:	0400006f          	j	80000d00 <mmode_exception_handler>
80000cc4:	e60ff06f          	j	80000324 <mmode_intr_vector_1>
80000cc8:	f00ff06f          	j	800003c8 <mmode_intr_vector_2>
80000ccc:	fa0ff06f          	j	8000046c <mmode_intr_vector_3>
80000cd0:	841ff06f          	j	80000510 <mmode_intr_vector_4>
80000cd4:	8e1ff06f          	j	800005b4 <mmode_intr_vector_5>
80000cd8:	981ff06f          	j	80000658 <mmode_intr_vector_6>
80000cdc:	a21ff06f          	j	800006fc <mmode_intr_vector_7>
80000ce0:	ac1ff06f          	j	800007a0 <mmode_intr_vector_8>
80000ce4:	b61ff06f          	j	80000844 <mmode_intr_vector_9>
80000ce8:	c01ff06f          	j	800008e8 <mmode_intr_vector_10>
80000cec:	ca1ff06f          	j	8000098c <mmode_intr_vector_11>
80000cf0:	d41ff06f          	j	80000a30 <mmode_intr_vector_12>
80000cf4:	de1ff06f          	j	80000ad4 <mmode_intr_vector_13>
80000cf8:	e81ff06f          	j	80000b78 <mmode_intr_vector_14>
80000cfc:	f21ff06f          	j	80000c1c <mmode_intr_vector_15>

80000d00 <mmode_exception_handler>:
80000d00:	34041473          	csrrw	s0,mscratch,s0
80000d04:	000f0433          	add	s0,t5,zero
80000d08:	f8440413          	add	s0,s0,-124
80000d0c:	00142223          	sw	ra,4(s0)
80000d10:	00242423          	sw	sp,8(s0)
80000d14:	00342623          	sw	gp,12(s0)
80000d18:	00442823          	sw	tp,16(s0)
80000d1c:	00542a23          	sw	t0,20(s0)
80000d20:	00642c23          	sw	t1,24(s0)
80000d24:	00742e23          	sw	t2,28(s0)
80000d28:	02842023          	sw	s0,32(s0)
80000d2c:	02942223          	sw	s1,36(s0)
80000d30:	02a42423          	sw	a0,40(s0)
80000d34:	02b42623          	sw	a1,44(s0)
80000d38:	02c42823          	sw	a2,48(s0)
80000d3c:	02d42a23          	sw	a3,52(s0)
80000d40:	02e42c23          	sw	a4,56(s0)
80000d44:	02f42e23          	sw	a5,60(s0)
80000d48:	05042023          	sw	a6,64(s0)
80000d4c:	05142223          	sw	a7,68(s0)
80000d50:	05242423          	sw	s2,72(s0)
80000d54:	05342623          	sw	s3,76(s0)
80000d58:	05442823          	sw	s4,80(s0)
80000d5c:	05542a23          	sw	s5,84(s0)
80000d60:	05642c23          	sw	s6,88(s0)
80000d64:	05742e23          	sw	s7,92(s0)
80000d68:	07842023          	sw	s8,96(s0)
80000d6c:	07942223          	sw	s9,100(s0)
80000d70:	07a42423          	sw	s10,104(s0)
80000d74:	07b42623          	sw	s11,108(s0)
80000d78:	07c42823          	sw	t3,112(s0)
80000d7c:	07d42a23          	sw	t4,116(s0)
80000d80:	07e42c23          	sw	t5,120(s0)
80000d84:	07f42e23          	sw	t6,124(s0)
80000d88:	34102773          	csrr	a4,mepc
80000d8c:	34202773          	csrr	a4,mcause
80000d90:	00b00b13          	li	s6,11
80000d94:	01670e63          	beq	a4,s6,80000db0 <ecall_handler>
80000d98:	00200b13          	li	s6,2
80000d9c:	0b670463          	beq	a4,s6,80000e44 <illegal_instr_handler>
80000da0:	34302b73          	csrr	s6,mtval
80000da4:	ffffff97          	auipc	t6,0xfffff
80000da8:	568f8f93          	add	t6,t6,1384 # 8000030c <test_done>
80000dac:	000f80e7          	jalr	t6

80000db0 <ecall_handler>:
80000db0:	fffff717          	auipc	a4,0xfffff
80000db4:	25070713          	add	a4,a4,592 # 80000000 <_start>
80000db8:	00072023          	sw	zero,0(a4)
80000dbc:	00172223          	sw	ra,4(a4)
80000dc0:	00272423          	sw	sp,8(a4)
80000dc4:	00372623          	sw	gp,12(a4)
80000dc8:	00472823          	sw	tp,16(a4)
80000dcc:	00572a23          	sw	t0,20(a4)
80000dd0:	00672c23          	sw	t1,24(a4)
80000dd4:	00772e23          	sw	t2,28(a4)
80000dd8:	02872023          	sw	s0,32(a4)
80000ddc:	02972223          	sw	s1,36(a4)
80000de0:	02a72423          	sw	a0,40(a4)
80000de4:	02b72623          	sw	a1,44(a4)
80000de8:	02c72823          	sw	a2,48(a4)
80000dec:	02d72a23          	sw	a3,52(a4)
80000df0:	02e72c23          	sw	a4,56(a4)
80000df4:	02f72e23          	sw	a5,60(a4)
80000df8:	05072023          	sw	a6,64(a4)
80000dfc:	05172223          	sw	a7,68(a4)
80000e00:	05272423          	sw	s2,72(a4)
80000e04:	05372623          	sw	s3,76(a4)
80000e08:	05472823          	sw	s4,80(a4)
80000e0c:	05572a23          	sw	s5,84(a4)
80000e10:	05672c23          	sw	s6,88(a4)
80000e14:	05772e23          	sw	s7,92(a4)
80000e18:	07872023          	sw	s8,96(a4)
80000e1c:	07972223          	sw	s9,100(a4)
80000e20:	07a72423          	sw	s10,104(a4)
80000e24:	07b72623          	sw	s11,108(a4)
80000e28:	07c72823          	sw	t3,112(a4)
80000e2c:	07d72a23          	sw	t4,116(a4)
80000e30:	07e72c23          	sw	t5,120(a4)
80000e34:	07f72e23          	sw	t6,124(a4)
80000e38:	ffffff97          	auipc	t6,0xfffff
80000e3c:	4dcf8f93          	add	t6,t6,1244 # 80000314 <write_tohost>
80000e40:	000f8067          	jr	t6

80000e44 <illegal_instr_handler>:
80000e44:	34102773          	csrr	a4,mepc
80000e48:	00470713          	add	a4,a4,4
80000e4c:	34171073          	csrw	mepc,a4
80000e50:	00442083          	lw	ra,4(s0)
80000e54:	00842103          	lw	sp,8(s0)
80000e58:	00c42183          	lw	gp,12(s0)
80000e5c:	01042203          	lw	tp,16(s0)
80000e60:	01442283          	lw	t0,20(s0)
80000e64:	01842303          	lw	t1,24(s0)
80000e68:	01c42383          	lw	t2,28(s0)
80000e6c:	02042403          	lw	s0,32(s0)
80000e70:	02442483          	lw	s1,36(s0)
80000e74:	02842503          	lw	a0,40(s0)
80000e78:	02c42583          	lw	a1,44(s0)
80000e7c:	03042603          	lw	a2,48(s0)
80000e80:	03442683          	lw	a3,52(s0)
80000e84:	03842703          	lw	a4,56(s0)
80000e88:	03c42783          	lw	a5,60(s0)
80000e8c:	04042803          	lw	a6,64(s0)
80000e90:	04442883          	lw	a7,68(s0)
80000e94:	04842903          	lw	s2,72(s0)
80000e98:	04c42983          	lw	s3,76(s0)
80000e9c:	05042a03          	lw	s4,80(s0)
80000ea0:	05442a83          	lw	s5,84(s0)
80000ea4:	05842b03          	lw	s6,88(s0)
80000ea8:	05c42b83          	lw	s7,92(s0)
80000eac:	06042c03          	lw	s8,96(s0)
80000eb0:	06442c83          	lw	s9,100(s0)
80000eb4:	06842d03          	lw	s10,104(s0)
80000eb8:	06c42d83          	lw	s11,108(s0)
80000ebc:	07042e03          	lw	t3,112(s0)
80000ec0:	07442e83          	lw	t4,116(s0)
80000ec4:	07842f03          	lw	t5,120(s0)
80000ec8:	07c42f83          	lw	t6,124(s0)
80000ecc:	07c40413          	add	s0,s0,124
80000ed0:	00040f33          	add	t5,s0,zero
80000ed4:	34041473          	csrrw	s0,mscratch,s0
80000ed8:	30200073          	mret

80000edc <mmode_intr_handler>:
80000edc:	30002773          	csrr	a4,mstatus
80000ee0:	30402773          	csrr	a4,mie
80000ee4:	34402773          	csrr	a4,mip
80000ee8:	34473773          	csrrc	a4,mip,a4
80000eec:	00442083          	lw	ra,4(s0)
80000ef0:	00842103          	lw	sp,8(s0)
80000ef4:	00c42183          	lw	gp,12(s0)
80000ef8:	01042203          	lw	tp,16(s0)
80000efc:	01442283          	lw	t0,20(s0)
80000f00:	01842303          	lw	t1,24(s0)
80000f04:	01c42383          	lw	t2,28(s0)
80000f08:	02042403          	lw	s0,32(s0)
80000f0c:	02442483          	lw	s1,36(s0)
80000f10:	02842503          	lw	a0,40(s0)
80000f14:	02c42583          	lw	a1,44(s0)
80000f18:	03042603          	lw	a2,48(s0)
80000f1c:	03442683          	lw	a3,52(s0)
80000f20:	03842703          	lw	a4,56(s0)
80000f24:	03c42783          	lw	a5,60(s0)
80000f28:	04042803          	lw	a6,64(s0)
80000f2c:	04442883          	lw	a7,68(s0)
80000f30:	04842903          	lw	s2,72(s0)
80000f34:	04c42983          	lw	s3,76(s0)
80000f38:	05042a03          	lw	s4,80(s0)
80000f3c:	05442a83          	lw	s5,84(s0)
80000f40:	05842b03          	lw	s6,88(s0)
80000f44:	05c42b83          	lw	s7,92(s0)
80000f48:	06042c03          	lw	s8,96(s0)
80000f4c:	06442c83          	lw	s9,100(s0)
80000f50:	06842d03          	lw	s10,104(s0)
80000f54:	06c42d83          	lw	s11,108(s0)
80000f58:	07042e03          	lw	t3,112(s0)
80000f5c:	07442e83          	lw	t4,116(s0)
80000f60:	07842f03          	lw	t5,120(s0)
80000f64:	07c42f83          	lw	t6,124(s0)
80000f68:	07c40413          	add	s0,s0,124
80000f6c:	00040f33          	add	t5,s0,zero
80000f70:	34041473          	csrrw	s0,mscratch,s0
80000f74:	30200073          	mret

80000f78 <kernel_instr_end>:
80000f78:	00000013          	nop

80000f7c <kernel_data_start>:
	...
